; Function Attrs: nounwind uwtable
define internal void @HIDAPI_DriverPS3SonySixaxis_SetDevicePlayerIndex(ptr noundef %0, i32 %1, i32 noundef %2) #0 {
  %4 = alloca [49 x i8], align 16
  %5 = alloca [9 x i8], align 1
  %6 = getelementptr inbounds nuw i8, ptr %0, i64 112
  %7 = load ptr, ptr %6, align 8
  %.not = icmp eq ptr %7, null
  br i1 %.not, label %23, label %8

8:                                                ; preds = %3
  %9 = getelementptr inbounds nuw i8, ptr %7, i64 20
  store i32 %2, ptr %9, align 4
  %10 = load ptr, ptr %6, align 8
  call void @llvm.lifetime.start.p0(i64 9, ptr nonnull %5) #10
  call void @llvm.memcpy.p0.p0.i64(ptr noundef nonnull align 1 dereferenceable(9) %5, ptr noundef nonnull align 1 dereferenceable(9) @__const.HIDAPI_DriverPS3_UpdateLEDsSonySixaxis.effects, i64 9, i1 false)
  %11 = getelementptr inbounds nuw i8, ptr %10, i64 20
  %12 = load i32, ptr %11, align 4
  %13 = icmp slt i32 %12, 4
  br i1 %13, label %14, label %18

14:                                               ; preds = %8
  %15 = sub nsw i32 8, %12
  %16 = zext nneg i32 %15 to i64
  %17 = getelementptr inbounds nuw [9 x i8], ptr %5, i64 0, i64 %16
  store i8 1, ptr %17, align 1
  br label %18

18:                                               ; preds = %14, %8
  call void @llvm.lifetime.start.p0(i64 49, ptr nonnull %4) #10
  %19 = getelementptr inbounds nuw i8, ptr %4, i64 9
  call void @llvm.memset.p0.i64(ptr noundef nonnull align 1 dereferenceable(40) %19, i8 0, i64 40, i1 false)
  call void @llvm.memcpy.p0.p0.i64(ptr noundef nonnull align 16 dereferenceable(9) %4, ptr noundef nonnull readonly align 1 dereferenceable(9) %5, i64 9, i1 false)
  %20 = call i32 @SDL_HIDAPI_SendRumble(ptr noundef nonnull %0, ptr noundef nonnull %4, i32 noundef 49) #10
  %.not.i.i = icmp eq i32 %20, 49
  br i1 %.not.i.i, label %HIDAPI_DriverPS3_UpdateLEDsSonySixaxis.exit, label %21

21:                                               ; preds = %18
  %22 = call zeroext i1 (ptr, ...) @SDL_SetError_REAL(ptr noundef nonnull @.str.8) #10
  br label %HIDAPI_DriverPS3_UpdateLEDsSonySixaxis.exit

HIDAPI_DriverPS3_UpdateLEDsSonySixaxis.exit:      ; preds = %18, %21
  call void @llvm.lifetime.end.p0(i64 49, ptr nonnull %4) #10
  call void @llvm.lifetime.end.p0(i64 9, ptr nonnull %5) #10
  br label %23

23:                                               ; preds = %3, %HIDAPI_DriverPS3_UpdateLEDsSonySixaxis.exit
  ret void
}